target datalayout = "e-m:e-p270:32:32-p271:32:32-p272:64:64-i64:64-i128:128-f80:128-n8:16:32:64-S128"
target triple = "x86_64-pc-linux-gnu"

%struct.Agobj_s = type { %struct.Agtag_s, ptr }
%struct.Agtag_s = type { i32, i64 }
%struct._dtlink_s = type { ptr, %union.anon }
%union.anon = type { ptr }
%struct.Agrec_s = type { ptr, ptr }
%struct.Agedge_s = type { %struct.Agobj_s, %struct._dtlink_s, %struct._dtlink_s, ptr }
%struct._dt_s = type { ptr, ptr, ptr, ptr, i32, ptr, ptr, ptr }
%struct.Agsym_s = type { %struct._dtlink_s, ptr, ptr, i32, i8, i8, i8 }
%struct.Agattr_s = type { %struct.Agrec_s, ptr, ptr }

; Function Attrs: nounwind uwtable
define internal zeroext i1 @not_default_attrs(ptr noundef %0, ptr noundef %1) #0 {
  %3 = alloca i1, align 1
  %4 = alloca ptr, align 8
  %5 = alloca ptr, align 8
  %6 = alloca ptr, align 8
  %7 = alloca ptr, align 8
  store ptr %0, ptr %4, align 8
  store ptr %1, ptr %5, align 8
  %8 = load ptr, ptr %5, align 8
  %9 = call ptr @agattrrec(ptr noundef %8)
  store ptr %9, ptr %6, align 8
  %10 = icmp ne ptr %9, null
  br i1 %10, label %11, label %52

11:                                               ; preds = %2
  %12 = load ptr, ptr %6, align 8
  %13 = getelementptr inbounds %struct.Agattr_s, ptr %12, i32 0, i32 1
  %14 = load ptr, ptr %13, align 8
  %15 = getelementptr inbounds %struct._dt_s, ptr %14, i32 0, i32 0
  %16 = load ptr, ptr %15, align 8
  %17 = load ptr, ptr %6, align 8
  %18 = getelementptr inbounds %struct.Agattr_s, ptr %17, i32 0, i32 1
  %19 = load ptr, ptr %18, align 8
  %20 = call ptr %16(ptr noundef %19, ptr noundef null, i32 noundef 128)
  store ptr %20, ptr %7, align 8
  br label %21

21:                                               ; preds = %40, %11
  %22 = load ptr, ptr %7, align 8
  %23 = icmp ne ptr %22, null
  br i1 %23, label %24, label %51

24:                                               ; preds = %21
  %25 = load ptr, ptr %6, align 8
  %26 = getelementptr inbounds %struct.Agattr_s, ptr %25, i32 0, i32 2
  %27 = load ptr, ptr %26, align 8
  %28 = load ptr, ptr %7, align 8
  %29 = getelementptr inbounds %struct.Agsym_s, ptr %28, i32 0, i32 3
  %30 = load i32, ptr %29, align 8
  %31 = sext i32 %30 to i64
  %32 = getelementptr inbounds ptr, ptr %27, i64 %31
  %33 = load ptr, ptr %32, align 8
  %34 = load ptr, ptr %7, align 8
  %35 = getelementptr inbounds %struct.Agsym_s, ptr %34, i32 0, i32 2
  %36 = load ptr, ptr %35, align 8
  %37 = icmp ne ptr %33, %36
  br i1 %37, label %38, label %39

38:                                               ; preds = %24
  store i1 true, ptr %3, align 1
  br label %53

39:                                               ; preds = %24
  br label %40

40:                                               ; preds = %39
  %41 = load ptr, ptr %6, align 8
  %42 = getelementptr inbounds %struct.Agattr_s, ptr %41, i32 0, i32 1
  %43 = load ptr, ptr %42, align 8
  %44 = getelementptr inbounds %struct._dt_s, ptr %43, i32 0, i32 0
  %45 = load ptr, ptr %44, align 8
  %46 = load ptr, ptr %6, align 8
  %47 = getelementptr inbounds %struct.Agattr_s, ptr %46, i32 0, i32 1
  %48 = load ptr, ptr %47, align 8
  %49 = load ptr, ptr %7, align 8
  %50 = call ptr %45(ptr noundef %48, ptr noundef %49, i32 noundef 8)
  store ptr %50, ptr %7, align 8
  br label %21

51:                                               ; preds = %21
  br label %52

52:                                               ; preds = %51, %2
  store i1 false, ptr %3, align 1
  br label %53

53:                                               ; preds = %52, %38
  %54 = load i1, ptr %3, align 1
  ret i1 %54
}

; Function Attrs: nounwind uwtable
define internal zeroext i1 @has_no_edges(ptr noundef %0, ptr noundef %1) #0 {
  %3 = alloca ptr, align 8
  %4 = alloca ptr, align 8
  store ptr %0, ptr %3, align 8
  store ptr %1, ptr %4, align 8
  %5 = load ptr, ptr %3, align 8
  %6 = load ptr, ptr %4, align 8
  %7 = call ptr @agfstin(ptr noundef %5, ptr noundef %6)
  %8 = icmp eq ptr %7, null
  br i1 %8, label %9, label %14

9:                                                ; preds = %2
  %10 = load ptr, ptr %3, align 8
  %11 = load ptr, ptr %4, align 8
  %12 = call ptr @agfstout(ptr noundef %10, ptr noundef %11)
  %13 = icmp eq ptr %12, null
  br label %14

14:                                               ; preds = %9, %2
  %15 = phi i1 [ false, %2 ], [ %13, %9 ]
  ret i1 %15
}

; Function Attrs: nounwind uwtable
define internal zeroext i1 @has_no_predecessor_below(ptr noundef %0, ptr noundef %1, i64 noundef %2) #0 {
  %4 = alloca i1, align 1
  %5 = alloca ptr, align 8
  %6 = alloca ptr, align 8
  %7 = alloca i64, align 8
  %8 = alloca ptr, align 8
  store ptr %0, ptr %5, align 8
  store ptr %1, ptr %6, align 8
  store i64 %2, ptr %7, align 8
  %9 = load ptr, ptr %6, align 8
  %10 = getelementptr inbounds %struct.Agobj_s, ptr %9, i32 0, i32 0
  %11 = load i32, ptr %10, align 8
  %12 = lshr i32 %11, 4
  %13 = zext i32 %12 to i64
  %14 = load i64, ptr %7, align 8
  %15 = icmp ult i64 %13, %14
  br i1 %15, label %16, label %17

16:                                               ; preds = %3
  store i1 false, ptr %4, align 1
  br label %41

17:                                               ; preds = %3
  %18 = load ptr, ptr %5, align 8
  %19 = load ptr, ptr %6, align 8
  %20 = call ptr @agfstin(ptr noundef %18, ptr noundef %19)
  store ptr %20, ptr %8, align 8
  br label %21

21:                                               ; preds = %36, %17
  %22 = load ptr, ptr %8, align 8
  %23 = icmp ne ptr %22, null
  br i1 %23, label %24, label %40

24:                                               ; preds = %21
  %25 = load ptr, ptr %8, align 8
  %26 = getelementptr inbounds %struct.Agedge_s, ptr %25, i32 0, i32 3
  %27 = load ptr, ptr %26, align 8
  %28 = getelementptr inbounds %struct.Agobj_s, ptr %27, i32 0, i32 0
  %29 = load i32, ptr %28, align 8
  %30 = lshr i32 %29, 4
  %31 = zext i32 %30 to i64
  %32 = load i64, ptr %7, align 8
  %33 = icmp ult i64 %31, %32
  br i1 %33, label %34, label %35

34:                                               ; preds = %24
  store i1 false, ptr %4, align 1
  br label %41

35:                                               ; preds = %24
  br label %36

36:                                               ; preds = %35
  %37 = load ptr, ptr %5, align 8
  %38 = load ptr, ptr %8, align 8
  %39 = call ptr @agnxtin(ptr noundef %37, ptr noundef %38)
  store ptr %39, ptr %8, align 8
  br label %21

40:                                               ; preds = %21
  store i1 true, ptr %4, align 1
  br label %41

41:                                               ; preds = %40, %34, %16
  %42 = load i1, ptr %4, align 1
  ret i1 %42
}

; Function Attrs: nounwind uwtable
define internal zeroext i1 @node_in_subg(ptr noundef %0, ptr noundef %1) #0 {
  %3 = alloca i1, align 1
  %4 = alloca ptr, align 8
  %5 = alloca ptr, align 8
  %6 = alloca ptr, align 8
  store ptr %0, ptr %4, align 8
  store ptr %1, ptr %5, align 8
  %7 = load ptr, ptr %4, align 8
  %8 = call ptr @agfstsubg(ptr noundef %7)
  store ptr %8, ptr %6, align 8
  br label %9

9:                                                ; preds = %23, %2
  %10 = load ptr, ptr %6, align 8
  %11 = icmp ne ptr %10, null
  br i1 %11, label %12, label %26

12:                                               ; preds = %9
  %13 = load ptr, ptr %6, align 8
  %14 = call zeroext i1 @irrelevant_subgraph(ptr noundef %13)
  br i1 %14, label %15, label %16

15:                                               ; preds = %12
  br label %23

16:                                               ; preds = %12
  %17 = load ptr, ptr %6, align 8
  %18 = load ptr, ptr %5, align 8
  %19 = call ptr @agsubnode(ptr noundef %17, ptr noundef %18, i32 noundef 0)
  %20 = icmp ne ptr %19, null
  br i1 %20, label %21, label %22

21:                                               ; preds = %16
  store i1 true, ptr %3, align 1
  br label %27

22:                                               ; preds = %16
  br label %23

23:                                               ; preds = %22, %15
  %24 = load ptr, ptr %6, align 8
  %25 = call ptr @agnxtsubg(ptr noundef %24)
  store ptr %25, ptr %6, align 8
  br label %9

26:                                               ; preds = %9
  store i1 false, ptr %3, align 1
  br label %27

27:                                               ; preds = %26, %21
  %28 = load i1, ptr %3, align 1
  ret i1 %28
}

; Function Attrs: nounwind uwtable
define internal zeroext i1 @write_node_test(ptr noundef %0, ptr noundef %1, i64 noundef %2) #0 {
  %4 = alloca i1, align 1
  %5 = alloca ptr, align 8
  %6 = alloca ptr, align 8
  %7 = alloca i64, align 8
  store ptr %0, ptr %5, align 8
  store ptr %1, ptr %6, align 8
  store i64 %2, ptr %7, align 8
  %8 = load ptr, ptr %5, align 8
  %9 = load ptr, ptr %6, align 8
  %10 = call zeroext i1 @node_in_subg(ptr noundef %8, ptr noundef %9)
  br i1 %10, label %26, label %11

11:                                               ; preds = %3
  %12 = load ptr, ptr %5, align 8
  %13 = load ptr, ptr %6, align 8
  %14 = load i64, ptr %7, align 8
  %15 = call zeroext i1 @has_no_predecessor_below(ptr noundef %12, ptr noundef %13, i64 noundef %14)
  br i1 %15, label %16, label %26

16:                                               ; preds = %11
  %17 = load ptr, ptr %5, align 8
  %18 = load ptr, ptr %6, align 8
  %19 = call zeroext i1 @has_no_edges(ptr noundef %17, ptr noundef %18)
  br i1 %19, label %24, label %20

20:                                               ; preds = %16
  %21 = load ptr, ptr %5, align 8
  %22 = load ptr, ptr %6, align 8
  %23 = call zeroext i1 @not_default_attrs(ptr noundef %21, ptr noundef %22)
  br i1 %23, label %24, label %25

24:                                               ; preds = %20, %16
  store i1 true, ptr %4, align 1
  br label %27

25:                                               ; preds = %20
  br label %26

26:                                               ; preds = %25, %11, %3
  store i1 false, ptr %4, align 1
  br label %27

27:                                               ; preds = %26, %24
  %28 = load i1, ptr %4, align 1
  ret i1 %28
}