; Function Attrs: nounwind uwtable
define internal fastcc noundef zeroext i1 @write_node_test(ptr noundef %0, ptr noundef %1, i64 noundef range(i64 0, 268435456) %2) unnamed_addr #0 {
  %4 = tail call ptr @agfstsubg(ptr noundef %0) #9
  %.not9.not.i = icmp eq ptr %4, null
  br i1 %.not9.not.i, label %.loopexit17, label %.lr.ph.i

.lr.ph.i:                                         ; preds = %3, %8
  %.010.i = phi ptr [ %9, %8 ], [ %4, %3 ]
  %5 = tail call fastcc zeroext i1 @irrelevant_subgraph(ptr noundef %.010.i)
  br i1 %5, label %8, label %6

6:                                                ; preds = %.lr.ph.i
  %7 = tail call ptr @agsubnode(ptr noundef nonnull %.010.i, ptr noundef %1, i32 noundef 0) #9
  %.not8.i = icmp eq ptr %7, null
  br i1 %.not8.i, label %8, label %not_default_attrs.exit

8:                                                ; preds = %6, %.lr.ph.i
  %9 = tail call ptr @agnxtsubg(ptr noundef nonnull %.010.i) #9
  %.not.not.i = icmp eq ptr %9, null
  br i1 %.not.not.i, label %.loopexit17, label %.lr.ph.i

.loopexit17:                                      ; preds = %8, %3
  %10 = load i32, ptr %1, align 8
  %11 = lshr i32 %10, 4
  %12 = zext nneg i32 %11 to i64
  %13 = icmp samesign ugt i64 %2, %12
  br i1 %13, label %not_default_attrs.exit, label %14

14:                                               ; preds = %.loopexit17
  %15 = tail call ptr @agfstin(ptr noundef %0, ptr noundef nonnull %1) #9
  %.not11.i = icmp eq ptr %15, null
  br i1 %.not11.i, label %.loopexit, label %.lr.ph.preheader.i

.lr.ph.preheader.i:                               ; preds = %14
  %16 = trunc nuw nsw i64 %2 to i32
  br label %.lr.ph.i9

.lr.ph.i9:                                        ; preds = %21, %.lr.ph.preheader.i
  %.012.i = phi ptr [ %22, %21 ], [ %15, %.lr.ph.preheader.i ]
  %17 = getelementptr inbounds nuw i8, ptr %.012.i, i64 56
  %18 = load ptr, ptr %17, align 8
  %19 = load i32, ptr %18, align 8
  %20 = lshr i32 %19, 4
  %.not15.i = icmp samesign ult i32 %20, %16
  br i1 %.not15.i, label %not_default_attrs.exit, label %21

21:                                               ; preds = %.lr.ph.i9
  %22 = tail call ptr @agnxtin(ptr noundef %0, ptr noundef nonnull %.012.i) #9
  %.not.i = icmp eq ptr %22, null
  br i1 %.not.i, label %.loopexit, label %.lr.ph.i9

.loopexit:                                        ; preds = %21, %14
  %23 = tail call ptr @agfstin(ptr noundef %0, ptr noundef nonnull %1) #9
  %24 = icmp eq ptr %23, null
  br i1 %24, label %has_no_edges.exit, label %has_no_edges.exit.thread

has_no_edges.exit:                                ; preds = %.loopexit
  %25 = tail call ptr @agfstout(ptr noundef %0, ptr noundef nonnull %1) #9
  %26 = icmp eq ptr %25, null
  br i1 %26, label %not_default_attrs.exit, label %has_no_edges.exit.thread

has_no_edges.exit.thread:                         ; preds = %.loopexit, %has_no_edges.exit
  %27 = tail call ptr @agattrrec(ptr noundef nonnull %1) #9
  %.not.i10 = icmp eq ptr %27, null
  br i1 %.not.i10, label %not_default_attrs.exit, label %28

28:                                               ; preds = %has_no_edges.exit.thread
  %29 = getelementptr inbounds nuw i8, ptr %27, i64 16
  %30 = load ptr, ptr %29, align 8
  %31 = load ptr, ptr %30, align 8
  %32 = tail call ptr %31(ptr noundef nonnull %30, ptr noundef null, i32 noundef 128) #9
  %33 = getelementptr inbounds nuw i8, ptr %27, i64 24
  %.not131.i = icmp eq ptr %32, null
  br i1 %.not131.i, label %not_default_attrs.exit, label %.lr.ph.i11

.lr.ph.i11:                                       ; preds = %28, %42
  %.02.i = phi ptr [ %45, %42 ], [ %32, %28 ]
  %34 = load ptr, ptr %33, align 8
  %35 = getelementptr inbounds nuw i8, ptr %.02.i, i64 32
  %36 = load i32, ptr %35, align 8
  %37 = sext i32 %36 to i64
  %38 = getelementptr inbounds ptr, ptr %34, i64 %37
  %39 = load ptr, ptr %38, align 8
  %40 = getelementptr inbounds nuw i8, ptr %.02.i, i64 24
  %41 = load ptr, ptr %40, align 8
  %.not14.not.i.not.not = icmp ne ptr %39, %41
  br i1 %.not14.not.i.not.not, label %not_default_attrs.exit, label %42

42:                                               ; preds = %.lr.ph.i11
  %43 = load ptr, ptr %29, align 8
  %44 = load ptr, ptr %43, align 8
  %45 = tail call ptr %44(ptr noundef nonnull %43, ptr noundef nonnull %.02.i, i32 noundef 8) #9
  %.not13.i = icmp eq ptr %45, null
  br i1 %.not13.i, label %not_default_attrs.exit, label %.lr.ph.i11

not_default_attrs.exit:                           ; preds = %6, %.lr.ph.i9, %42, %.lr.ph.i11, %28, %has_no_edges.exit.thread, %.loopexit17, %has_no_edges.exit
  %.0 = phi i1 [ true, %has_no_edges.exit ], [ false, %.loopexit17 ], [ false, %has_no_edges.exit.thread ], [ false, %28 ], [ %.not14.not.i.not.not, %.lr.ph.i11 ], [ %.not14.not.i.not.not, %42 ], [ false, %.lr.ph.i9 ], [ false, %6 ]
  ret i1 %.0
}